; Function Attrs: mustprogress uwtable
define void @_ZN4toku8keyrange6createEPK10__toku_dbtS3_(ptr noundef nonnull align 8 dereferenceable(81) initializes((64, 80)) %0, ptr noundef %1, ptr noundef %2) local_unnamed_addr #0 align 2 {
  %4 = getelementptr inbounds nuw i8, ptr %0, i64 64
  tail call void @llvm.memset.p0.i64(ptr noundef nonnull align 8 dereferenceable(16) %4, i8 0, i64 16, i1 false)
  %5 = tail call noundef ptr @_Z13toku_init_dbtP10__toku_dbt(ptr noundef nonnull align 8 dereferenceable(81) %0)
  %6 = getelementptr inbounds nuw i8, ptr %0, i64 32
  %7 = tail call noundef ptr @_Z13toku_init_dbtP10__toku_dbt(ptr noundef nonnull %6)
  %8 = getelementptr inbounds nuw i8, ptr %0, i64 80
  store i8 0, ptr %8, align 8, !tbaa !4
  store ptr %1, ptr %4, align 8, !tbaa !14
  %9 = getelementptr inbounds nuw i8, ptr %0, i64 72
  store ptr %2, ptr %9, align 8, !tbaa !15
  ret void
}